target datalayout = "e-m:e-p270:32:32-p271:32:32-p272:64:64-i64:64-i128:128-f80:128-n8:16:32:64-S128"
target triple = "x86_64-pc-linux-gnu"

%"class.folly::netops::Msgheader" = type { %struct.msghdr }
%struct.msghdr = type { ptr, i32, ptr, i64, ptr, i64, i32 }

; Function Attrs: mustprogress nounwind uwtable
define noundef ptr @_ZN5folly6netops9Msgheader12cmsgFirstHrdEv(ptr noundef nonnull align 8 dereferenceable(56) %0) #3 align 2 {
  %2 = alloca ptr, align 8
  store ptr %0, ptr %2, align 8, !tbaa !40
  %3 = load ptr, ptr %2, align 8
  %4 = getelementptr inbounds nuw %"class.folly::netops::Msgheader", ptr %3, i32 0, i32 0
  %5 = getelementptr inbounds nuw %struct.msghdr, ptr %4, i32 0, i32 5
  %6 = load i64, ptr %5, align 8, !tbaa !53
  %7 = icmp uge i64 %6, 16
  br i1 %7, label %8, label %12

8:                                                ; preds = %1
  %9 = getelementptr inbounds nuw %"class.folly::netops::Msgheader", ptr %3, i32 0, i32 0
  %10 = getelementptr inbounds nuw %struct.msghdr, ptr %9, i32 0, i32 4
  %11 = load ptr, ptr %10, align 8, !tbaa !52
  br label %13

12:                                               ; preds = %1
  br label %13

13:                                               ; preds = %12, %8
  %14 = phi ptr [ %11, %8 ], [ null, %12 ]
  ret ptr %14
}